; Function Attrs: nounwind uwtable
define hidden range(i32 0, 2) i32 @HMAC_CTX_copy_ex(ptr noundef %dest, ptr noundef %src) local_unnamed_addr #0 {
entry:
  %i_ctx = getelementptr inbounds nuw i8, ptr %dest, i64 40
  %i_ctx1 = getelementptr inbounds nuw i8, ptr %src, i64 40
  %call = tail call i32 @EVP_MD_CTX_copy_ex(ptr noundef nonnull %i_ctx, ptr noundef nonnull %i_ctx1) #5
  %tobool.not = icmp eq i32 %call, 0
  br i1 %tobool.not, label %return, label %lor.lhs.false

lor.lhs.false:                                    ; preds = %entry
  %o_ctx = getelementptr inbounds nuw i8, ptr %dest, i64 72
  %o_ctx2 = getelementptr inbounds nuw i8, ptr %src, i64 72
  %call3 = tail call i32 @EVP_MD_CTX_copy_ex(ptr noundef nonnull %o_ctx, ptr noundef nonnull %o_ctx2) #5
  %tobool4.not = icmp eq i32 %call3, 0
  br i1 %tobool4.not, label %return, label %lor.lhs.false5

lor.lhs.false5:                                   ; preds = %lor.lhs.false
  %md_ctx = getelementptr inbounds nuw i8, ptr %dest, i64 8
  %md_ctx6 = getelementptr inbounds nuw i8, ptr %src, i64 8
  %call7 = tail call i32 @EVP_MD_CTX_copy_ex(ptr noundef nonnull %md_ctx, ptr noundef nonnull %md_ctx6) #5
  %tobool8.not = icmp eq i32 %call7, 0
  br i1 %tobool8.not, label %return, label %if.end

if.end:                                           ; preds = %lor.lhs.false5
  %0 = load ptr, ptr %src, align 8
  store ptr %0, ptr %dest, align 8
  br label %return

return:                                           ; preds = %entry, %lor.lhs.false, %lor.lhs.false5, %if.end
  %retval.0 = phi i32 [ 1, %if.end ], [ 0, %lor.lhs.false5 ], [ 0, %lor.lhs.false ], [ 0, %entry ]
  ret i32 %retval.0
}